; ModuleID = '63/1093.c'
source_filename = "63/1093.c"
target datalayout = "e-m:e-p270:32:32-p271:32:32-p272:64:64-i64:64-f80:128-n8:16:32:64-S128"
target triple = "x86_64-pc-linux-gnu"

@.str = private unnamed_addr constant [6 x i8] c"%d %d\00", align 1
@.str.1 = private unnamed_addr constant [3 x i8] c"%d\00", align 1
@.str.2 = private unnamed_addr constant [4 x i8] c"%d \00", align 1
@.str.3 = private unnamed_addr constant [4 x i8] c"%d\0A\00", align 1

; Function Attrs: noinline nounwind uwtable
define dso_local i32 @main() #0 {
  %1 = alloca i32, align 4
  %2 = alloca i32, align 4
  %3 = alloca i32, align 4
  %4 = alloca i32, align 4
  %5 = alloca i32, align 4
  %6 = alloca i32, align 4
  %7 = alloca i32, align 4
  %8 = alloca i32, align 4
  %9 = alloca [100 x [100 x i32]], align 16
  %10 = alloca [100 x [100 x i32]], align 16
  %11 = alloca [100 x [100 x i32]], align 16
  %12 = alloca i32, align 4
  %13 = alloca i32, align 4
  %14 = alloca i32, align 4
  %15 = alloca i32, align 4
  %16 = alloca i32, align 4
  %17 = alloca i32, align 4
  %18 = alloca i32, align 4
  store i32 0, i32* %1, align 4
  store i32 0, i32* %8, align 4
  %19 = call i32 (i8*, ...) @__isoc99_scanf(i8* getelementptr inbounds ([6 x i8], [6 x i8]* @.str, i64 0, i64 0), i32* %2, i32* %4)
  store i32 0, i32* %12, align 4
  br label %20

20:                                               ; preds = %43, %0
  %21 = load i32, i32* %12, align 4
  %22 = load i32, i32* %2, align 4
  %23 = sub nsw i32 %22, 1
  %24 = icmp sle i32 %21, %23
  br i1 %24, label %25, label %46

25:                                               ; preds = %20
  store i32 0, i32* %13, align 4
  br label %26

26:                                               ; preds = %39, %25
  %27 = load i32, i32* %13, align 4
  %28 = load i32, i32* %4, align 4
  %29 = sub nsw i32 %28, 1
  %30 = icmp sle i32 %27, %29
  br i1 %30, label %31, label %42

31:                                               ; preds = %26
  %32 = load i32, i32* %12, align 4
  %33 = sext i32 %32 to i64
  %34 = getelementptr inbounds [100 x [100 x i32]], [100 x [100 x i32]]* %9, i64 0, i64 %33
  %35 = load i32, i32* %13, align 4
  %36 = sext i32 %35 to i64
  %37 = getelementptr inbounds [100 x i32], [100 x i32]* %34, i64 0, i64 %36
  %38 = call i32 (i8*, ...) @__isoc99_scanf(i8* getelementptr inbounds ([3 x i8], [3 x i8]* @.str.1, i64 0, i64 0), i32* %37)
  br label %39

39:                                               ; preds = %31
  %40 = load i32, i32* %13, align 4
  %41 = add nsw i32 %40, 1
  store i32 %41, i32* %13, align 4
  br label %26

42:                                               ; preds = %26
  br label %43

43:                                               ; preds = %42
  %44 = load i32, i32* %12, align 4
  %45 = add nsw i32 %44, 1
  store i32 %45, i32* %12, align 4
  br label %20

46:                                               ; preds = %20
  %47 = call i32 (i8*, ...) @__isoc99_scanf(i8* getelementptr inbounds ([6 x i8], [6 x i8]* @.str, i64 0, i64 0), i32* %3, i32* %5)
  store i32 0, i32* %14, align 4
  br label %48

48:                                               ; preds = %71, %46
  %49 = load i32, i32* %14, align 4
  %50 = load i32, i32* %3, align 4
  %51 = sub nsw i32 %50, 1
  %52 = icmp sle i32 %49, %51
  br i1 %52, label %53, label %74

53:                                               ; preds = %48
  store i32 0, i32* %15, align 4
  br label %54

54:                                               ; preds = %67, %53
  %55 = load i32, i32* %15, align 4
  %56 = load i32, i32* %5, align 4
  %57 = sub nsw i32 %56, 1
  %58 = icmp sle i32 %55, %57
  br i1 %58, label %59, label %70

59:                                               ; preds = %54
  %60 = load i32, i32* %14, align 4
  %61 = sext i32 %60 to i64
  %62 = getelementptr inbounds [100 x [100 x i32]], [100 x [100 x i32]]* %10, i64 0, i64 %61
  %63 = load i32, i32* %15, align 4
  %64 = sext i32 %63 to i64
  %65 = getelementptr inbounds [100 x i32], [100 x i32]* %62, i64 0, i64 %64
  %66 = call i32 (i8*, ...) @__isoc99_scanf(i8* getelementptr inbounds ([3 x i8], [3 x i8]* @.str.1, i64 0, i64 0), i32* %65)
  br label %67

67:                                               ; preds = %59
  %68 = load i32, i32* %15, align 4
  %69 = add nsw i32 %68, 1
  store i32 %69, i32* %15, align 4
  br label %54

70:                                               ; preds = %54
  br label %71

71:                                               ; preds = %70
  %72 = load i32, i32* %14, align 4
  %73 = add nsw i32 %72, 1
  store i32 %73, i32* %14, align 4
  br label %48

74:                                               ; preds = %48
  store i32 0, i32* %6, align 4
  br label %75

75:                                               ; preds = %131, %74
  %76 = load i32, i32* %6, align 4
  %77 = load i32, i32* %2, align 4
  %78 = sub nsw i32 %77, 1
  %79 = icmp sle i32 %76, %78
  br i1 %79, label %80, label %134

80:                                               ; preds = %75
  store i32 0, i32* %7, align 4
  br label %81

81:                                               ; preds = %127, %80
  %82 = load i32, i32* %7, align 4
  %83 = load i32, i32* %5, align 4
  %84 = sub nsw i32 %83, 1
  %85 = icmp sle i32 %82, %84
  br i1 %85, label %86, label %130

86:                                               ; preds = %81
  store i32 0, i32* %16, align 4
  br label %87

87:                                               ; preds = %123, %86
  %88 = load i32, i32* %16, align 4
  %89 = load i32, i32* %3, align 4
  %90 = sub nsw i32 %89, 1
  %91 = icmp sle i32 %88, %90
  br i1 %91, label %92, label %126

92:                                               ; preds = %87
  %93 = load i32, i32* %8, align 4
  %94 = load i32, i32* %6, align 4
  %95 = sext i32 %94 to i64
  %96 = getelementptr inbounds [100 x [100 x i32]], [100 x [100 x i32]]* %9, i64 0, i64 %95
  %97 = load i32, i32* %16, align 4
  %98 = sext i32 %97 to i64
  %99 = getelementptr inbounds [100 x i32], [100 x i32]* %96, i64 0, i64 %98
  %100 = load i32, i32* %99, align 4
  %101 = load i32, i32* %16, align 4
  %102 = sext i32 %101 to i64
  %103 = getelementptr inbounds [100 x [100 x i32]], [100 x [100 x i32]]* %10, i64 0, i64 %102
  %104 = load i32, i32* %7, align 4
  %105 = sext i32 %104 to i64
  %106 = getelementptr inbounds [100 x i32], [100 x i32]* %103, i64 0, i64 %105
  %107 = load i32, i32* %106, align 4
  %108 = mul nsw i32 %100, %107
  %109 = add nsw i32 %93, %108
  %110 = load i32, i32* %6, align 4
  %111 = sext i32 %110 to i64
  %112 = getelementptr inbounds [100 x [100 x i32]], [100 x [100 x i32]]* %11, i64 0, i64 %111
  %113 = load i32, i32* %7, align 4
  %114 = sext i32 %113 to i64
  %115 = getelementptr inbounds [100 x i32], [100 x i32]* %112, i64 0, i64 %114
  store i32 %109, i32* %115, align 4
  %116 = load i32, i32* %6, align 4
  %117 = sext i32 %116 to i64
  %118 = getelementptr inbounds [100 x [100 x i32]], [100 x [100 x i32]]* %11, i64 0, i64 %117
  %119 = load i32, i32* %7, align 4
  %120 = sext i32 %119 to i64
  %121 = getelementptr inbounds [100 x i32], [100 x i32]* %118, i64 0, i64 %120
  %122 = load i32, i32* %121, align 4
  store i32 %122, i32* %8, align 4
  br label %123

123:                                              ; preds = %92
  %124 = load i32, i32* %16, align 4
  %125 = add nsw i32 %124, 1
  store i32 %125, i32* %16, align 4
  br label %87

126:                                              ; preds = %87
  store i32 0, i32* %8, align 4
  br label %127

127:                                              ; preds = %126
  %128 = load i32, i32* %7, align 4
  %129 = add nsw i32 %128, 1
  store i32 %129, i32* %7, align 4
  br label %81

130:                                              ; preds = %81
  br label %131

131:                                              ; preds = %130
  %132 = load i32, i32* %6, align 4
  %133 = add nsw i32 %132, 1
  store i32 %133, i32* %6, align 4
  br label %75

134:                                              ; preds = %75
  store i32 0, i32* %17, align 4
  br label %135

135:                                              ; preds = %168, %134
  %136 = load i32, i32* %17, align 4
  %137 = load i32, i32* %2, align 4
  %138 = sub nsw i32 %137, 1
  %139 = icmp sle i32 %136, %138
  br i1 %139, label %140, label %171

140:                                              ; preds = %135
  store i32 0, i32* %18, align 4
  br label %141

141:                                              ; preds = %155, %140
  %142 = load i32, i32* %18, align 4
  %143 = load i32, i32* %5, align 4
  %144 = sub nsw i32 %143, 2
  %145 = icmp sle i32 %142, %144
  br i1 %145, label %146, label %158

146:                                              ; preds = %141
  %147 = load i32, i32* %17, align 4
  %148 = sext i32 %147 to i64
  %149 = getelementptr inbounds [100 x [100 x i32]], [100 x [100 x i32]]* %11, i64 0, i64 %148
  %150 = load i32, i32* %18, align 4
  %151 = sext i32 %150 to i64
  %152 = getelementptr inbounds [100 x i32], [100 x i32]* %149, i64 0, i64 %151
  %153 = load i32, i32* %152, align 4
  %154 = call i32 (i8*, ...) @printf(i8* getelementptr inbounds ([4 x i8], [4 x i8]* @.str.2, i64 0, i64 0), i32 %153)
  br label %155

155:                                              ; preds = %146
  %156 = load i32, i32* %18, align 4
  %157 = add nsw i32 %156, 1
  store i32 %157, i32* %18, align 4
  br label %141

158:                                              ; preds = %141
  %159 = load i32, i32* %17, align 4
  %160 = sext i32 %159 to i64
  %161 = getelementptr inbounds [100 x [100 x i32]], [100 x [100 x i32]]* %11, i64 0, i64 %160
  %162 = load i32, i32* %5, align 4
  %163 = sub nsw i32 %162, 1
  %164 = sext i32 %163 to i64
  %165 = getelementptr inbounds [100 x i32], [100 x i32]* %161, i64 0, i64 %164
  %166 = load i32, i32* %165, align 4
  %167 = call i32 (i8*, ...) @printf(i8* getelementptr inbounds ([4 x i8], [4 x i8]* @.str.3, i64 0, i64 0), i32 %166)
  br label %168

168:                                              ; preds = %158
  %169 = load i32, i32* %17, align 4
  %170 = add nsw i32 %169, 1
  store i32 %170, i32* %17, align 4
  br label %135

171:                                              ; preds = %135
  %172 = load i32, i32* %1, align 4
  ret i32 %172
}

declare dso_local i32 @__isoc99_scanf(i8*, ...) #1

declare dso_local i32 @printf(i8*, ...) #1


!llvm.module.flags = !{!0}
!llvm.ident = !{!1}

!0 = !{i32 1, !"wchar_size", i32 4}
!1 = !{!"clang version 10.0.0-4ubuntu1 "}
